; Function Attrs: mustprogress uwtable
define hidden noundef ptr @_ZN11ast_manager17update_quantifierEP10quantifierP4expr(ptr noundef nonnull align 8 dereferenceable(976) %0, ptr noundef %1, ptr noundef %2) local_unnamed_addr #7 align 2 {
  %4 = getelementptr inbounds nuw i8, ptr %1, i64 24
  %5 = load ptr, ptr %4, align 8, !tbaa !131
  %6 = icmp eq ptr %5, %2
  br i1 %6, label %25, label %7

7:                                                ; preds = %3
  %8 = getelementptr inbounds nuw i8, ptr %1, i64 16
  %9 = load i32, ptr %8, align 8, !tbaa !127
  %10 = getelementptr inbounds nuw i8, ptr %1, i64 20
  %11 = load i32, ptr %10, align 4, !tbaa !130
  %12 = getelementptr inbounds nuw i8, ptr %1, i64 80
  %13 = zext i32 %11 to i64
  %14 = getelementptr inbounds nuw ptr, ptr %12, i64 %13
  %15 = getelementptr inbounds nuw i8, ptr %1, i64 44
  %16 = load i32, ptr %15, align 4, !tbaa !134
  %17 = getelementptr inbounds nuw i8, ptr %1, i64 56
  %18 = getelementptr inbounds nuw i8, ptr %1, i64 64
  %19 = getelementptr inbounds nuw i8, ptr %1, i64 72
  %20 = load i32, ptr %19, align 8, !tbaa !137
  %21 = getelementptr inbounds nuw %class.symbol, ptr %14, i64 %13
  %22 = getelementptr inbounds nuw i8, ptr %1, i64 76
  %23 = load i32, ptr %22, align 4, !tbaa !138
  %24 = tail call noundef ptr @_ZN11ast_manager13mk_quantifierE15quantifier_kindjPKP4sortPK6symbolP4expriRS6_SA_jPKS9_jSC_(ptr noundef nonnull align 8 dereferenceable(976) %0, i32 noundef %9, i32 noundef %11, ptr noundef nonnull %12, ptr noundef nonnull %14, ptr noundef %2, i32 noundef %16, ptr noundef nonnull align 8 dereferenceable(8) %17, ptr noundef nonnull align 8 dereferenceable(8) %18, i32 noundef %20, ptr noundef nonnull %21, i32 noundef %23, ptr noundef nonnull %21)
  br label %25

25:                                               ; preds = %3, %7
  %.0 = phi ptr [ %24, %7 ], [ %1, %3 ]
  ret ptr %.0
}